(lp1
(lp2
(lp3
F0.088035795458937027
aF0.45958348884985711
aF0.44206521169341412
aF0.065978768945647928
aF0.93508562520300176
aF0.78619190827042051
aF0.076896541545458552
aF0.95537276684688233
aF0.99999999999999989
aF0.045700046673947926
aF0.74485728685387342
aF0.33522934244966357
aF0.071626838850313318
aF0
aF0
aF0.10025698726092254
aF0.076979148573587911
aF0.43571790345465211
aaa(lp4
(lp5
F0.1907991376744258
aF0.507560631237579
aF0.26376657148891247
aF0.51833798563007882
aF1
aF0.46314643492512864
aF0.30945533798786851
aF0.95537276684688233
aF0.89923786236121739
aF0.19277230617868299
aF0.74485728685387342
aF0.33522934244966357
aF0.16344676025128885
aF0.12008182143254345
aF0
aF0.053244334698985485
aF0.049616875713170999
aF0.28097086282135714
aaa(lp6
(lp7
F0.10077174824228746
aF0.45771554170490225
aF0.45987746389726436
aF0.1279501605738694
aF1
aF0.9031865228277135
aF0.091238937148665156
aF0.95537276684688233
aF0.99999999999999989
aF0.067162162519729757
aF0.74485728685387342
aF0.33522934244966357
aF0.092682581002728637
aF0
aF0
aF0.087710697321878694
aF0.064607141621835895
aF0.79636590590729339
aaa(lp8
(lp9
F1
aF0.58648175456939411
aF0.24797555216791003
aF0.72332433142812325
aF0.37592007846100794
aF0.40804218126138825
aF0.37665229251661758
aF0.95537276684688233
aF0.73293126672007392
aF0.31035356861102759
aF0.74485728685387342
aF0.33522934244966357
aF0.66656819111491805
aF0.76358973442389821
aF0.037475807375938683
aF0.65547178553823515
aF0.65402676349365352
aF0.40939207593882704
aaa(lp10
(lp11
F0.41511274051044111
aF0.52426037243101198
aF0.46287260516392331
aF0.11398419457290088
aF0.86116718356466115
aF0.16962543708740641
aF0.48766444505321421
aF0.87825900281453761
aF0.7039961905968205
aF0.31841490068300943
aF0.74485728685387342
aF0.33522934244966357
aF0.34440207785549637
aF0.27619962025362182
aF0.50915985525153118
aF0.30224942163185614
aF0.28251790850363201
aF0.81952355491500706
aaa(lp12
(lp13
F0.29633786772515652
aF0.53847800077467523
aF0.60439125091907009
aF0.39808698039999901
aF0.83345149562039733
aF0.40076324237167138
aF0.33414203349839067
aF0.95537276684688233
aF0.99999999999999989
aF0.25101500378405628
aF0.74485728685387342
aF0.33522934244966357
aF0.24784055642185165
aF0.28133953119967181
aF0.7098194239935367
aF0.2195297610891406
aF0.17998402042992298
aF0.64500288018439744
aaa(lp14
(lp15
F0.30857376159314215
aF0.48936972825705194
aF0.65762479500009852
aF0.34341144853334887
aF0.93308970008402192
aF0.93010069872881318
aF0.37719272424019296
aF0.84396506926717318
aF0.99999999999999989
aF0.24051615136423307
aF0.74485728685387342
aF0.33522934244966357
aF0.29122557881334127
aF0.1023826081848047
aF0.15925927454452732
aF0.11435934421943728
aF0.10181556785779271
aF0.59418309606801434
aaa(lp16
(lp17
F0.23885274736346085
aF0.54208249087789384
aF0.42310409431548279
aF0.43003952188853983
aF0.95257297474046387
aF0.31212428487971522
aF0.22415431928406837
aF0.95537276684688233
aF0.99857066732633015
aF0.17871989141823108
aF0.74485728685387342
aF0.33522934244966357
aF0.23927863726931903
aF0.24123562053212114
aF0
aF0.10225747653094434
aF0.095126687947450744
aF0.5632377697580403
aaa(lp18
(lp19
F0.44646169645860989
aF0.56156015110322854
aF0.43833076214017358
aF0.39344944912442997
aF0.90293736953161996
aF0.18463338611403868
aF0.52812850683251389
aF0.91011197778210495
aF0.70562782589295459
aF0.37988737043038395
aF0.74485728685387342
aF0.33522934244966357
aF0.4166905145132781
aF0.48053989819125259
aF0.34109834333823258
aF0.16914887063926082
aF0.15167487397391549
aF0.92286102082472632
aaa(lp20
(lp21
F0.11037985000864661
aF0.47453543491175887
aF0.3873471822462427
aF0.051914271062524581
aF1
aF0.046537604283241718
aF0.13282324643144414
aF0.95537276684688233
aF0.99999999999999989
aF0.080799748802181798
aF0.74485728685387342
aF0.33522934244966357
aF0.09362264106598675
aF0
aF0
aF0.070661223464397141
aF0.059940990663066615
aF0.69884746668566067
aaa(lp22
(lp23
F0.42631952216598645
aF0.53916379754413968
aF0.39040164640049524
aF0.25875454623901728
aF0.88335526266714104
aF0
aF0.55102225837459928
aF0.92923363280023186
aF0
aF0.37770562390485857
aF0.74485728685387342
aF0.33522934244966357
aF0.40012117243527889
aF0.36055585558745906
aF0.68461673139067725
aF0.15613320587086724
aF0.13831467036753461
aF0.81159835395528246
aaa(lp24
(lp25
F0.59609663230902443
aF0.52403912098058436
aF0.38830842494159395
aF1
aF0.80243386845805398
aF0.02207589616587402
aF0.85098675378998812
aF0.85573685854319137
aF0.40345648126177913
aF0.52677635383582355
aF0.80640160085918566
aF0.33522934244966357
aF0.51606612006682806
aF0.40453811477566315
aF0.59341693868230394
aF0.2558542359719907
aF0.15272652245835058
aF0.71410909301051262
aaa(lp26
(lp27
F0.32927589526294904
aF0.60556635202605424
aF0.41201919082189853
aF0.16368250580320604
aF0.94394579100804887
aF0.013683639112907819
aF0.1271427782323824
aF0.95537276684688233
aF0.99999999999999989
aF0.11528267283583138
aF0.74485728685387342
aF0.33522934244966357
aF0.13307342638007164
aF0
aF0
aF0.83924990823164614
aF0.87003406511382297
aF0.85716562523888562
aaa(lp28
(lp29
F0.60803954069866872
aF0.50301226855687242
aF0.39151240089894424
aF0.60843344556283263
aF0.53327559320041429
aF0.086203720124594874
aF0.7610392060641602
aF0.7918326658088235
aF0.31710531252601803
aF0.50370958154362566
aF0.74485728685387342
aF0.33522934244966357
aF0.52142315107082871
aF0.36587184495123409
aF0.74148310029970121
aF0.51236108358372479
aF0.33878145988036334
aF0.8858492790010819
aaa(lp30
(lp31
F0.095610989936242202
aF0.45986275846368485
aF0.39902512284386471
aF0.062255880527406077
aF1
aF0.60511761231500838
aF0.089263232222565408
aF0.95537276684688233
aF0.99999999999999989
aF0.06642959100113785
aF0.74485728685387342
aF0.33522934244966357
aF0.073294003650612685
aF0
aF0
aF0.084766634541289881
aF0.076135702391537829
aF0.2200638573915179
aaa(lp32
(lp33
F0.44613856191283657
aF0.55421105373065893
aF0.47114257415001581
aF0.074867761853003381
aF0.8616528040868956
aF0.29449538261440455
aF0.61407489903874579
aF0.905543974220266
aF0.65008940750851119
aF0.40280614571703155
aF0.86585742661860987
aF0.33522934244966357
aF0.39184525702124401
aF0.32961428505099394
aF0.49698771637147116
aF0.19049311243903483
aF0.20982577761925872
aF1
aaa(lp34
(lp35
F0.56430040480641086
aF0.64153448412926928
aF0.50880250875051947
aF0.54446103051286765
aF0.36286547374747891
aF0.035234985482734849
aF0.29175017649144869
aF0.95537276684688233
aF0.9284048434961355
aF0.24349460777988971
aF0.74485728685387342
aF0.33522934244966357
aF0.26858954538617991
aF0.27170075962265866
aF0.39781040513483379
aF0.65132620400298813
aF0.65631002442637965
aF0.9921206688072568
aaa(lp36
(lp37
F0.36042291608672161
aF0.57662653490646143
aF0.42898483538364851
aF0.40620978503144312
aF0.8843818738177136
aF0.11091372231421481
aF0.36855683867528283
aF0.95537276684688233
aF0.73509239798001236
aF0.27226586188821306
aF0.74485728685387342
aF0.33522934244966357
aF0.31840453500018739
aF0.36070144940248311
aF0.18525638192527177
aF0.19944373560720863
aF0.15795592922784665
aF0.86384020937474182
aaa(lp38
(lp39
F0.12130077315764673
aF0.47801154944277063
aF0.52084964713605519
aF0.038821565681414101
aF0.99519281324458453
aF0.78990879502920375
aF0.10814256123219385
aF0.95537276684688233
aF0.99999999999999989
aF0.072604083064191194
aF0.74485728685387342
aF0.33522934244966357
aF0.089551784073987784
aF0
aF0
aF0.15114582145093317
aF0.15052336906067618
aF0.88871144491663479
aaa(lp40
(lp41
F0.90073173515962279
aF0.68309543096723613
aF0.34714215406685722
aF0.32259050049542481
aF0
aF0.2740913834434332
aF0.73016319743572111
aF0.87050486281733275
aF0.30566570031724338
aF0.50018952762863955
aF0.7631861776080362
aF0.33140637407874207
aF0.52917386959651924
aF0.45135927157829187
aF0.46385063084884726
aF1
aF0.99999999999999989
aF0.94904291916569239
aaa(lp42
(lp43
F0.44940168814427151
aF0.54561106926447778
aF0.33958897337668381
aF0.1463990423467221
aF0.88621856375183106
aF0.061201001059090987
aF0.67049206312603227
aF0.95537276684688233
aF0.53591458371485734
aF0.38954263387824101
aF0.8342910810258457
aF0.33522934244966357
aF0.38540856165733911
aF0.3640450137392191
aF0.39584644998756841
aF0.17097706705558971
aF0.16746119393681069
aF0.75574566418644817
aaa(lp44
(lp45
F0.53851370395044795
aF0.51287056585937851
aF0.39463128090157168
aF0.2162744036371089
aF0.83558208722242611
aF0.051869539229897899
aF0.67260408418063888
aF0.81575253748309928
aF0.39675351207322385
aF0.43073950023435448
aF0.74485728685387342
aF0.33522934244966357
aF0.47353858686162442
aF0.34073797066481842
aF0.56922556792701717
aF0.23151957309651661
aF0.16321848477643836
aF0.77853111992527513
aaa(lp46
(lp47
F0.46608689172506629
aF0.48933092427438241
aF0.31494527482437007
aF0.47663044933165555
aF0.65768801935595678
aF0.18962855863114048
aF0.56736499024356046
aF0.87842624879564246
aF0.18749494244438702
aF0.31633004650344193
aF0.74485728685387342
aF0.33522934244966357
aF0.32763466828650267
aF0.30929072006427805
aF0.61157876684026002
aF0.4855796467479585
aF0.37748110490454057
aF0.92187580210481468
aaa(lp48
(lp49
F0.10658148846011076
aF0.50513674372394646
aF0.46604005213019789
aF0.01439769422503053
aF0.92344895242363623
aF0.69191141706099835
aF0.059887936242500973
aF0.95537276684688233
aF0.99999999999999989
aF0.034974629088608121
aF0.74485728685387342
aF0.33522934244966357
aF0.048988461857052787
aF0
aF0
aF0.81585255680454216
aF0.77577594202805999
aF0.96971245085558011
aaa(lp50
(lp51
F0.0242113544984267
aF0.44199866500210228
aF0.42004800390316016
aF0.037264574878256962
aF1
aF1
aF0.036280375776344166
aF0.95537276684688233
aF0.99999999999999989
aF0.012224791695766131
aF0.74485728685387342
aF0.33522934244966357
aF0.01443050920893614
aF0
aF0
aF0.026943403664907245
aF0
aF0
aaa(lp52
(lp53
F0.7456539013630058
aF0.49782856897324668
aF0.42961710177943424
aF0.70112986925412979
aF0.79255596633794634
aF0.15486812959969232
aF1
aF0.76583691285543842
aF0.412552251536214
aF0.66397705667131846
aF0.87194818887862668
aF0.33522934244966357
aF0.6723995746591005
aF0.60193384201981959
aF0.71790269977915488
aF0.28874579418991742
aF0.17700066753177371
aF0.9919013113009314
aaa(lp54
(lp55
F0.50089628918686147
aF0.50303087582844552
aF0.4442398027918002
aF0.65371869444367114
aF0.92346143620335763
aF0.11772627741890151
aF0.73203542249865472
aF0.80174453290431269
aF0.24360902223173042
aF0.41042950036566178
aF0.74485728685387342
aF0.33522934244966357
aF0.45724582664727831
aF0.34587483850261863
aF0.94342183087636866
aF0.15446622937956159
aF0.19970006221985473
aF0.68763420726286406
aaa(lp56
(lp57
F0.21235262504737859
aF0.53783062434014905
aF0.43660852131149014
aF0.055608417640769708
aF0.75224070127241371
aF0.60946000872396633
aF0.1062926264866301
aF0.95537276684688233
aF0.99999999999999989
aF0.067236485914587224
aF0.74485728685387342
aF0.33522934244966357
aF0.090803074396060224
aF0
aF0
aF0.58087103961357167
aF0.50951222476506086
aF0.50076573408841696
aaa(lp58
(lp59
F0.46173994553970943
aF0.51874893364593999
aF0.43440912157421258
aF0.76268928705467065
aF0.72990050201677625
aF0.054182466309731447
aF0.62015787074565543
aF0.87899351551666005
aF0.31613609346266747
aF0.35840928294986085
aF0.74485728685387342
aF0.33522934244966357
aF0.4169839464150959
aF0.36847042851087303
aF0.75708794080295216
aF0.35108791695428754
aF0.34983263672482767
aF0.97041656958240252
aaa(lp60
(lp61
F0.2073942058459147
aF0.46691430601580575
aF0.46664369100728109
aF0.082148977640749812
aF0.8163265662960939
aF0.086898553251991695
aF0.14348176872032406
aF0.95537276684688233
aF0.99999999999999989
aF0.11427192569457609
aF0.74485728685387342
aF0.33522934244966357
aF0.1613693608242649
aF0
aF0
aF0.28225711163472816
aF0.19707235743009671
aF0.77899342614160172
aaa(lp62
(lp63
F0.071981077923435693
aF0.44199866500210228
aF0.42004800390316016
aF0.030688052385004095
aF1
aF1
aF0.12148001413132456
aF0.95537276684688233
aF0.99999999999999989
aF0.076306072613290116
aF0.74485728685387342
aF0.33522934244966357
aF0.065604012358500968
aF0
aF0
aF0.020515884216331673
aF0
aF0
aaa(lp64
(lp65
F0.08814164572013064
aF0.44199866500210228
aF0.42004800390316016
aF0.020798904592372297
aF1
aF1
aF0.048923668781625275
aF0.95537276684688233
aF0.99999999999999989
aF0.079730250488605714
aF0.74485728685387342
aF0.33522934244966357
aF0.1027971301075033
aF0
aF0
aF0.03147418635508039
aF0
aF0
aaa(lp66
(lp67
F0.36501521916519719
aF0.49290163213394039
aF0.49858913949611389
aF0.094882322438849045
aF0.86523369341684886
aF0.10678374313675298
aF0.3748225159841182
aF0.95537276684688233
aF0.86339405303298056
aF0.28275109450350627
aF0.74485728685387342
aF0.33522934244966357
aF0.32534833832724797
aF0.2693121817588538
aF0.54420817598482618
aF0.18133366725605304
aF0.15791365085415257
aF0.87210857146181675
aaa(lp68
(lp69
F0.20401682952233127
aF0.54818927727415034
aF0.86449052528357462
aF0.049122114957819409
aF1
aF1
aF0.30561405686850823
aF0.95537276684688233
aF0.99999999999999989
aF0.15073830520641118
aF0.74485728685387342
aF0.33522934244966357
aF0.18920274728602318
aF0.24359397625955745
aF0.63670712558465403
aF0.075097500442656381
aF0.052298184598409056
aF0.43210041699384005
aaa(lp70
(lp71
F0.30096137025989272
aF0.46332494324718987
aF0.65943922927547383
aF0.013100249167242185
aF0.91414039750539178
aF0.16916526692580047
aF0.24176023103262978
aF0.95537276684688233
aF0.99999999999999989
aF0.25032456525958813
aF0.74485728685387342
aF0.33522934244966357
aF0.33908579537495126
aF0.16350239778245473
aF1
aF0.12704294030205868
aF0.051941227332037716
aF0.63447155311548264
aaa(lp72
(lp73
F0.20587224805944537
aF0.63698893726995609
aF0.42004800390316016
aF0
aF1
aF1
aF0.08977502690356115
aF0.95537276684688233
aF0.99999999999999989
aF0.12958128827547921
aF0.74485728685387342
aF0.33522934244966357
aF0.10669321717447361
aF0
aF0
aF0.12246197586868948
aF0.1395819397311569
aF0
aaa(lp74
(lp75
F0.2848320269370801
aF0.48965734378317549
aF0.67394664741575361
aF0.020595573815760587
aF0.96127907367847443
aF0.43595295936741607
aF0.38242136788266745
aF0.95537276684688233
aF0.99999999999999989
aF0.30390944290647076
aF0.74544307765721785
aF0.79737844657164603
aF0.27905670863893672
aF0.071532226542676672
aF0.77535908112302632
aF0.080558879762108224
aF0.067449401288194516
aF0.41645919564414557
aaa(lp76
(lp77
F0.40098043029781094
aF0.5356253945268481
aF0.37753862131539079
aF0.017257414796702123
aF0.9377226360546973
aF0.25534220182344236
aF0.33530070127522821
aF0.81191147202785086
aF0.9693175391602753
aF0.34950580933687897
aF0.74485728685387342
aF0.33522934244966357
aF0.41546862108435118
aF0.1750067512877424
aF0.34565592309523346
aF0.1628442624424328
aF0.16635372151643171
aF0.30166854205244115
aaa(lp78
(lp79
F0.027859809659264191
aF0.44199866500210228
aF0.42004800390316016
aF0.015462585065555385
aF1
aF1
aF0.026641903451066019
aF0.95537276684688233
aF0.99999999999999989
aF0.022291262902483858
aF0.74485728685387342
aF0.33522934244966357
aF0.028915385549465322
aF0
aF0
aF0.010413369149757155
aF0
aF0
aaa(lp80
(lp81
F0.090092678878640059
aF0.44199866500210228
aF0.42004800390316016
aF0.029959490979449027
aF1
aF1
aF0.089333039933989333
aF0.95537276684688233
aF0.99999999999999989
aF0.0769789328200082
aF0.74485728685387342
aF0.33522934244966357
aF0.093063605408554434
aF0
aF0
aF0.032447614520338661
aF0
aF0
aaa(lp82
(lp83
F0.35579703792097678
aF0.61093828563277486
aF0.49252996028520357
aF0
aF0.93961982463752225
aF0.79731115103947048
aF0.12392205571493872
aF0.95537276684688233
aF0.99999999999999989
aF0.17367997488792719
aF0.74485728685387342
aF0.33522934244966357
aF0.41194554467471356
aF0.24542283257254999
aF0
aF0.27285917372976876
aF0.25883318442979303
aF0.63776863594804367
aaa(lp84
(lp85
F0.42960943998181939
aF0.63050778676148034
aF0.41134576954998997
aF0.02957559010434814
aF0.83677085621872593
aF0.9484190186510062
aF0.043728444547504748
aF0.95537276684688233
aF0.99999999999999989
aF0.084339406051076871
aF0.74485728685387342
aF0.33522934244966357
aF0.13665994726610209
aF0
aF0
aF0.47528516625912343
aF0.49762503782707984
aF0.0053084188395864755
aaa(lp86
(lp87
F0.41708832430800136
aF0.5650370657430922
aF0.50583587277968045
aF0.099202174560633724
aF0.92072260976712594
aF0.01096217857558146
aF0.45654132172482087
aF0.95034231350954446
aF0.83149863289303916
aF0.34073120166117427
aF0.74485728685387342
aF0.33522934244966357
aF0.40599303238265655
aF0.40911100048042615
aF0.37062453463256428
aF0.20947549242855729
aF0.14059412382349401
aF0.91983086103680345
aaa(lp88
(lp89
F0.11368560237059722
aF0.50598403588478413
aF0.42004800390316027
aF0.033097702151047008
aF1
aF1
aF0.11285720352654696
aF0.97659967258823921
aF0.99999999999999989
aF0.097711417574476961
aF0.86621570277817661
aF0.33522934244966374
aF0.11746807018307395
aF0.11466884910395944
aF1.1970024924426756e-16
aF0.040845145026846247
aF0.01832132870701083
aF7.2772730183409999e-17
aaa(lp90
(lp91
F0.065383389976623768
aF0.44199866500210228
aF0.42004800390316016
aF0.021666790111091856
aF1
aF1
aF0.064180884979076203
aF0.95537276684688233
aF0.99999999999999989
aF0.055265432344772249
aF0.74485728685387342
aF0.33522934244966357
aF0.06768574186527046
aF0
aF0
aF0.023746561918838671
aF0
aF0
aaa(lp92
(lp93
F0.050820775253416821
aF0.44199866500210228
aF0.42004800390316016
aF0.083173121379124984
aF1
aF1
aF0.035348952627058318
aF0.95537276684688233
aF0.99999999999999989
aF0.023848650603168174
aF0.74485728685387342
aF0.33522934244966357
aF0.050323657021909649
aF0
aF0
aF0.021171374982624162
aF0
aF0
aaa(lp94
(lp95
F0.13792163948557093
aF0.47503840182381735
aF0.59189229338486382
aF0.12685237518472206
aF1
aF1
aF0.24696736512834833
aF0.95537276684688233
aF0.99999999999999989
aF0.13840862679070759
aF0.74485728685387342
aF0.33522934244966357
aF0.11910416741531066
aF0.039473904152146334
aF0.11577609201919761
aF0.039862013153045738
aF0.018920946158572913
aF0.21116102162016689
aaa(lp96
(lp97
F0.65487904311100209
aF0.50154233876143484
aF0.33408204608499215
aF0.047405979773729463
aF0.73569693356762633
aF0.15523704919066572
aF0.79902292560064625
aF0.73740348415389745
aF0.27959290076980026
aF0.62263427680946015
aF0.74485728685387342
aF0.22321198436375139
aF0.57587511163734073
aF0.5238591964721131
aF0.71061495222869464
aF0.30932891872994722
aF0.3095412212048092
aF0.86173724269577889
aaa(lp98
(lp99
F0.010073832283830159
aF0.44199866500210228
aF0.42004800390316016
aF0.0080868644183853273
aF1
aF1
aF0.0083924789700760213
aF0.95537276684688233
aF0.99999999999999989
aF0.0066616820705357252
aF0.74485728685387342
aF0.33522934244966357
aF0.010699121377910056
aF0
aF0
aF0.0041766340737286172
aF0
aF0
aaa(lp100
(lp101
F0.050152228513716167
aF0.44199866500210228
aF0.42004800390316016
aF0.018668094185813874
aF1
aF1
aF0.082265833044753545
aF0.95537276684688233
aF0.99999999999999989
aF0.07170152893892251
aF0.74485728685387342
aF0.33522934244966357
aF0.051965905879687885
aF0
aF0
aF0.012261896217233946
aF0
aF0
aaa(lp102
(lp103
F0.91710986348988754
aF0.7118060772801108
aF0.45432650005267677
aF0.18781337244460319
aF0.85693186642078178
aF0.95133446698504887
aF0.23880820044360923
aF0.95537276684688233
aF0.99999999999999989
aF1
aF0.74485728685387342
aF0.33522934244966357
aF1
aF0.0058673422282321964
aF0.018716503745665691
aF0.33408959989628323
aF0.33283402598010126
aF0.09324535390042088
aaa(lp104
(lp105
F0.34133825101867399
aF0.49866309964730737
aF0.21887134086795795
aF0.074204631731219883
aF0.92188301659639127
aF0.13462720799171635
aF0.48129282872597462
aF0.92236037824573591
aF0.28463801998463889
aF0.28946298987673091
aF0.74485728685387342
aF0.33522934244966357
aF0.33038915455175399
aF0.085257444136843955
aF0.29318750398819382
aF0.12224997553201411
aF0.12689142174158555
aF0.91500533629762659
aaa(lp106
(lp107
F0.011251459384307785
aF0.44199866500210228
aF0.42004800390316016
aF0.0074710111010991061
aF1
aF1
aF0.0094872208441996037
aF0.95537276684688233
aF0.99999999999999989
aF0.0076965320294831441
aF0.74485728685387342
aF0.33522934244966357
aF0.011945243556776945
aF0
aF0
aF0.0046102713216992202
aF0
aF0
aaa(lp108
(lp109
F0.59401835036265926
aF0
aF0
aF0.26749608699052352
aF0.62335351936178662
aF0.32093765504965799
aF0.59129877625255167
aF0
aF0.017811168006385825
aF0.32139656737708716
aF0
aF0
aF0.51437183606121883
aF0.53900794898399695
aF0.45489766528829717
aF0.29710110153273339
aF0.25364922167084458
aF0.3439181051789732
aaa(lp110
(lp111
F0
aF0.44199866500210228
aF0.42004800390316016
aF0.014441436416471901
aF1
aF1
aF0.0015910815680819854
aF0.95537276684688233
aF0.99999999999999989
aF0
aF0.74485728685387342
aF0.33522934244966357
aF0
aF0
aF0
aF0
aF0
aF0
aaa(lp112
(lp113
F0.53809748674266533
aF0.52633283726559832
aF0.49641253401687169
aF0.096983365583731801
aF0.89124928545189608
aF0.11916501538398339
aF0.70993366792127743
aF0.84548104645055977
aF0.35639155568268666
aF0.4396036677801835
aF0.74485728685387342
aF0.5181055193548153
aF0.52128096217846809
aF0.25649834036782826
aF0.71300730804911716
aF0.20816462488759907
aF0.20287719281645406
aF0.98878267242418216
aaa(lp114
(lp115
F0.35371396631824364
aF0.82416762954466138
aF0.62998987301287313
aF0.37821215929283142
aF1
aF1
aF0.12212875158623984
aF0.95537276684688233
aF0.99999999999999989
aF0.074277647600219127
aF0.74485728685387342
aF0.33522934244966357
aF0.35440609471220852
aF0.68488897888389277
aF0.21216517490954831
aF0.16820465745470362
aF0.16414322034266657
aF0.19348128920560242
aaa(lp116
(lp117
F0.023901948513260121
aF0.44199866500210228
aF0.42004800390316016
aF0.020009101544571396
aF1
aF1
aF0
aF0.95537276684688233
aF0.99999999999999989
aF0.00046384791953495152
aF0.74485728685387342
aF0.33522934244966357
aF0.021472267753106573
aF0
aF0
aF0.017811555009783799
aF0
aF0
aaa(lp118
(lp119
F0.16582201248356554
aF0.49089881641561733
aF0.27897698315903835
aF0.050818681473706259
aF1
aF0.69949850255855806
aF0.16053344259652413
aF0.95537276684688233
aF0.99999999999999989
aF0.12122901541897246
aF0.74485728685387342
aF0.33522934244966357
aF0.13953280483048702
aF0
aF0
aF0.081018078651935707
aF0.049006594386910685
aF0
aaa(lp120
(lp121
F0.58137406282224313
aF0.99999999999999989
aF0.64623838877188322
aF0.43013204406066591
aF1
aF1
aF0.26073604517979626
aF0.95537276684688233
aF0.99999999999999989
aF0.19336362231445636
aF0.74485728685387342
aF0.33522934244966357
aF0.5891132325804157
aF1
aF0.22858576410716741
aF0.26534458635587627
aF0.23966398263578029
aF0.20845583330232045
aaa(lp122
(lp123
F0.27463138577508672
aF0.54811544778525523
aF0.18489965453586008
aF0.010321339267754649
aF0.95397471264691169
aF0.38411362848099428
aF0.36568822052305783
aF0.95537276684688233
aF0.37708946955839551
aF0.24644486496575738
aF0.82934173639965891
aF0.33522934244966357
aF0.21556781697195654
aF0.23994396373287841
aF0
aF0.088456642261569213
aF0.078046923274090782
aF0.75851047239760194
aaa(lp124
(lp125
F0.0667311898476593
aF0.44199866500210228
aF0.42004800390316016
aF0.012166906285948924
aF1
aF1
aF0.064529230314535169
aF0.95537276684688233
aF0.99999999999999989
aF0.056449823091762337
aF0.74485728685387342
aF0.33522934244966357
aF0.069430578415607958
aF0
aF0
aF0.024407712906631573
aF0
aF0
aaa(lp126
(lp127
F0.17448344563369217
aF0.53915594824488566
aF0.82566811555927588
aF0.017806264677279134
aF1
aF1
aF0.24203994401483603
aF0.95537276684688233
aF0.99999999999999989
aF0.10954607221033344
aF0.74485728685387342
aF0.33522934244966357
aF0.10696169545903322
aF0
aF0
aF0.084143994452590132
aF0.069549121073117601
aF0.62302882907341883
aaa(lp128
(lp129
F0.35094671174879888
aF0.52972361027094395
aF0.31328207548256332
aF0.052736245284569029
aF0.86496704428738047
aF0.53400074226799765
aF0.39634481396028681
aF0.95537276684688233
aF0.43309274778875162
aF0.24984043325118063
aF0.91977198247951286
aF0.33522934244966357
aF0.30818324937991115
aF0.39218652465084258
aF0
aF0.17139686337693705
aF0.09230252211825106
aF0.64550702579822083
aaa(lp130
(lp131
F0.14824114538670896
aF0.47832129064194534
aF0.68477740505748885
aF0
aF0.93764683910383961
aF0.99380435892810648
aF0.082172138523714994
aF0.95537276684688233
aF0.99999999999999989
aF0.049163075004669092
aF0.74485728685387342
aF0.33522934244966357
aF0.11624380613408594
aF0
aF0
aF0.10891433248282376
aF0.107991632000391
aF0.73817406766433502
aaa(lp132
(lp133
F0.1529560816277781
aF0.4871044389538684
aF0.47951755587959138
aF0.003687506766623311
aF1
aF1
aF0.2247258293814452
aF0.95537276684688233
aF0.99999999999999989
aF0.14021317720910204
aF0.74485728685387342
aF0.33522934244966357
aF0.13597021077008678
aF0
aF0
aF0.045939140038725228
aF0.034657004833554272
aF0.088469160944104758
aaa(lp134
(lp135
F0.34989206011701068
aF0.48795818142354858
aF1.0000000000000002
aF0.02596672066593889
aF0.97059400714326771
aF0.7201616697210973
aF0.63727079576375445
aF0.92193912336768913
aF0.84603502589917845
aF0.37428381598871202
aF0.91700741285688292
aF1
aF0.31443817825194825
aF0.22355364451484411
aF0.89944438961562889
aF0.097496409728165756
aF0.029187644047332886
aF0.67247124637520284
aaa(lp136
(lp137
F0.48107770583386605
aF0.96729209201128608
aF0.34516419121320341
aF0.0082111521752610862
aF1
aF0.9088495679946611
aF0.18305399621587387
aF0.95537276684688233
aF0.94984970826193227
aF0.097456399490559509
aF0.74485728685387342
aF0.33522934244966357
aF0.34707346040344689
aF0.62758921178466698
aF0
aF0.30478247550858506
aF0.30082105991112695
aF0
aaa(lp138
(lp139
F0.40715905803411678
aF0.71935572750652765
aF0.41997068078217087
aF0.0061316821700132937
aF1
aF0.72793994555505692
aF0.56530505565046518
aF0.99999999999999989
aF0.70062915116212932
aF0.50449178782778203
aF1
aF0.33522934244966357
aF0.42342758761258498
aF0.49705447838304956
aF0.30108912961479573
aF0.11617535901560397
aF0.099866767267585005
aF0.27457434043310414
aaa.